target datalayout = "e-m:e-p270:32:32-p271:32:32-p272:64:64-i64:64-i128:128-f80:128-n8:16:32:64-S128"
target triple = "x86_64-pc-linux-gnu"

%union.anon.6 = type { i64 }
%union.anon.9 = type { i32 }

; Function Attrs: inlinehint nounwind uwtable
define internal i32 @DatumGetObjectId(i64 noundef %0) #1 {
  %2 = alloca i64, align 8
  store i64 %0, ptr %2, align 8
  %3 = load i64, ptr %2, align 8
  %4 = trunc i64 %3 to i32
  ret i32 %4
}

; Function Attrs: inlinehint nounwind uwtable
define internal double @DatumGetFloat8(i64 noundef %0) #1 {
  %2 = alloca i64, align 8
  %3 = alloca %union.anon.6, align 8
  store i64 %0, ptr %2, align 8
  call void @llvm.lifetime.start.p0(i64 8, ptr %3) #10
  %4 = load i64, ptr %2, align 8
  %5 = call i64 @DatumGetInt64(i64 noundef %4)
  store i64 %5, ptr %3, align 8
  %6 = load double, ptr %3, align 8
  call void @llvm.lifetime.end.p0(i64 8, ptr %3) #10
  ret double %6
}

; Function Attrs: inlinehint nounwind uwtable
define internal float @DatumGetFloat4(i64 noundef %0) #1 {
  %2 = alloca i64, align 8
  %3 = alloca %union.anon.9, align 4
  store i64 %0, ptr %2, align 8
  call void @llvm.lifetime.start.p0(i64 4, ptr %3) #10
  %4 = load i64, ptr %2, align 8
  %5 = call i32 @DatumGetInt32(i64 noundef %4)
  store i32 %5, ptr %3, align 4
  %6 = load float, ptr %3, align 4
  call void @llvm.lifetime.end.p0(i64 4, ptr %3) #10
  ret float %6
}

; Function Attrs: inlinehint nounwind uwtable
define internal i64 @DatumGetInt64(i64 noundef %0) #1 {
  %2 = alloca i64, align 8
  store i64 %0, ptr %2, align 8
  %3 = load i64, ptr %2, align 8
  ret i64 %3
}

; Function Attrs: inlinehint nounwind uwtable
define internal i32 @DatumGetInt32(i64 noundef %0) #1 {
  %2 = alloca i64, align 8
  store i64 %0, ptr %2, align 8
  %3 = load i64, ptr %2, align 8
  %4 = trunc i64 %3 to i32
  ret i32 %4
}

; Function Attrs: inlinehint nounwind uwtable
define internal signext i16 @DatumGetInt16(i64 noundef %0) #1 {
  %2 = alloca i64, align 8
  store i64 %0, ptr %2, align 8
  %3 = load i64, ptr %2, align 8
  %4 = trunc i64 %3 to i16
  ret i16 %4
}

; Function Attrs: inlinehint nounwind uwtable
define internal zeroext i1 @DatumGetBool(i64 noundef %0) #1 {
  %2 = alloca i64, align 8
  store i64 %0, ptr %2, align 8
  %3 = load i64, ptr %2, align 8
  %4 = icmp ne i64 %3, 0
  ret i1 %4
}

; Function Attrs: nounwind uwtable
define internal double @convert_numeric_to_scalar(i64 noundef %0, i32 noundef %1, ptr noundef %2) #0 {
  %4 = alloca double, align 8
  %5 = alloca i64, align 8
  %6 = alloca i32, align 4
  %7 = alloca ptr, align 8
  store i64 %0, ptr %5, align 8
  store i32 %1, ptr %6, align 4
  store ptr %2, ptr %7, align 8
  %8 = load i32, ptr %6, align 4
  switch i32 %8, label %40 [
    i32 16, label %9
    i32 21, label %13
    i32 23, label %17
    i32 20, label %21
    i32 700, label %25
    i32 701, label %29
    i32 1700, label %32
    i32 26, label %36
    i32 24, label %36
    i32 2202, label %36
    i32 2203, label %36
    i32 2204, label %36
    i32 2205, label %36
    i32 2206, label %36
    i32 4191, label %36
    i32 3734, label %36
    i32 3769, label %36
    i32 4096, label %36
    i32 4089, label %36
  ]

9:                                                ; preds = %3
  %10 = load i64, ptr %5, align 8
  %11 = call zeroext i1 @DatumGetBool(i64 noundef %10)
  %12 = uitofp i1 %11 to double
  store double %12, ptr %4, align 8
  br label %42

13:                                               ; preds = %3
  %14 = load i64, ptr %5, align 8
  %15 = call signext i16 @DatumGetInt16(i64 noundef %14)
  %16 = sitofp i16 %15 to double
  store double %16, ptr %4, align 8
  br label %42

17:                                               ; preds = %3
  %18 = load i64, ptr %5, align 8
  %19 = call i32 @DatumGetInt32(i64 noundef %18)
  %20 = sitofp i32 %19 to double
  store double %20, ptr %4, align 8
  br label %42

21:                                               ; preds = %3
  %22 = load i64, ptr %5, align 8
  %23 = call i64 @DatumGetInt64(i64 noundef %22)
  %24 = sitofp i64 %23 to double
  store double %24, ptr %4, align 8
  br label %42

25:                                               ; preds = %3
  %26 = load i64, ptr %5, align 8
  %27 = call float @DatumGetFloat4(i64 noundef %26)
  %28 = fpext float %27 to double
  store double %28, ptr %4, align 8
  br label %42

29:                                               ; preds = %3
  %30 = load i64, ptr %5, align 8
  %31 = call double @DatumGetFloat8(i64 noundef %30)
  store double %31, ptr %4, align 8
  br label %42

32:                                               ; preds = %3
  %33 = load i64, ptr %5, align 8
  %34 = call i64 @DirectFunctionCall1Coll(ptr noundef @numeric_float8_no_overflow, i32 noundef 0, i64 noundef %33)
  %35 = call double @DatumGetFloat8(i64 noundef %34)
  store double %35, ptr %4, align 8
  br label %42

36:                                               ; preds = %3, %3, %3, %3, %3, %3, %3, %3, %3, %3, %3, %3
  %37 = load i64, ptr %5, align 8
  %38 = call i32 @DatumGetObjectId(i64 noundef %37)
  %39 = uitofp i32 %38 to double
  store double %39, ptr %4, align 8
  br label %42

40:                                               ; preds = %3
  %41 = load ptr, ptr %7, align 8
  store i8 1, ptr %41, align 1
  store double 0.000000e+00, ptr %4, align 8
  br label %42

42:                                               ; preds = %40, %36, %32, %29, %25, %21, %17, %13, %9
  %43 = load double, ptr %4, align 8
  ret double %43
}