; Function Attrs: nounwind uwtable
define internal fastcc double @convert_numeric_to_scalar(i64 noundef %0, i32 noundef %1, ptr noundef nonnull writeonly captures(none) %2) unnamed_addr #0 {
  switch i32 %1, label %27 [
    i32 16, label %4
    i32 21, label %7
    i32 23, label %10
    i32 20, label %13
    i32 700, label %15
    i32 701, label %19
    i32 1700, label %21
    i32 26, label %24
    i32 24, label %24
    i32 2202, label %24
    i32 2203, label %24
    i32 2204, label %24
    i32 2205, label %24
    i32 2206, label %24
    i32 4191, label %24
    i32 3734, label %24
    i32 3769, label %24
    i32 4096, label %24
    i32 4089, label %24
  ]

4:                                                ; preds = %3
  %5 = icmp ne i64 %0, 0
  %6 = uitofp i1 %5 to double
  br label %28

7:                                                ; preds = %3
  %8 = trunc i64 %0 to i16
  %9 = sitofp i16 %8 to double
  br label %28

10:                                               ; preds = %3
  %11 = trunc i64 %0 to i32
  %12 = sitofp i32 %11 to double
  br label %28

13:                                               ; preds = %3
  %14 = sitofp i64 %0 to double
  br label %28

15:                                               ; preds = %3
  %16 = trunc i64 %0 to i32
  %17 = bitcast i32 %16 to float
  %18 = fpext float %17 to double
  br label %28

19:                                               ; preds = %3
  %20 = bitcast i64 %0 to double
  br label %28

21:                                               ; preds = %3
  %22 = tail call i64 @DirectFunctionCall1Coll(ptr noundef nonnull @numeric_float8_no_overflow, i32 noundef 0, i64 noundef %0) #12
  %23 = bitcast i64 %22 to double
  br label %28

24:                                               ; preds = %3, %3, %3, %3, %3, %3, %3, %3, %3, %3, %3, %3
  %25 = trunc i64 %0 to i32
  %26 = uitofp i32 %25 to double
  br label %28

27:                                               ; preds = %3
  store i8 1, ptr %2, align 1
  br label %28

28:                                               ; preds = %27, %24, %21, %19, %15, %13, %10, %7, %4
  %.0 = phi double [ 0.000000e+00, %27 ], [ %26, %24 ], [ %23, %21 ], [ %20, %19 ], [ %18, %15 ], [ %14, %13 ], [ %12, %10 ], [ %9, %7 ], [ %6, %4 ]
  ret double %.0
}